target datalayout = "e-m:e-p270:32:32-p271:32:32-p272:64:64-i64:64-i128:128-f80:128-n8:16:32:64-S128"
target triple = "x86_64-pc-linux-gnu"

%"class.ncnn::CpuSet" = type { %struct.cpu_set_t }
%struct.cpu_set_t = type { [16 x i64] }

@_ZL23g_cpu_affinity_mask_all = internal global %"class.ncnn::CpuSet" zeroinitializer, align 8
@_ZL26g_cpu_affinity_mask_little = internal global %"class.ncnn::CpuSet" zeroinitializer, align 8
@_ZL23g_cpu_affinity_mask_big = internal global %"class.ncnn::CpuSet" zeroinitializer, align 8
@_ZL11g_powersave = internal global i32 0, align 4
@stderr = external global ptr, align 8
@.str.17 = private unnamed_addr constant [2 x i8] c"\0A\00", align 1
@.str.32 = private unnamed_addr constant [27 x i8] c"powersave %d not supported\00", align 1

; Function Attrs: mustprogress uwtable
define hidden noundef nonnull align 8 dereferenceable(128) ptr @_ZN4ncnn28get_cpu_thread_affinity_maskEi(i32 noundef %0) #1 {
  %2 = alloca ptr, align 8
  %3 = alloca i32, align 4
  store i32 %0, ptr %3, align 4, !tbaa !9
  call void @_ZL30try_initialize_global_cpu_infov()
  %4 = load i32, ptr %3, align 4, !tbaa !9
  %5 = icmp eq i32 %4, 0
  br i1 %5, label %6, label %7

6:                                                ; preds = %1
  store ptr @_ZL23g_cpu_affinity_mask_all, ptr %2, align 8
  br label %23

7:                                                ; preds = %1
  %8 = load i32, ptr %3, align 4, !tbaa !9
  %9 = icmp eq i32 %8, 1
  br i1 %9, label %10, label %11

10:                                               ; preds = %7
  store ptr @_ZL26g_cpu_affinity_mask_little, ptr %2, align 8
  br label %23

11:                                               ; preds = %7
  %12 = load i32, ptr %3, align 4, !tbaa !9
  %13 = icmp eq i32 %12, 2
  br i1 %13, label %14, label %15

14:                                               ; preds = %11
  store ptr @_ZL23g_cpu_affinity_mask_big, ptr %2, align 8
  br label %23

15:                                               ; preds = %11
  br label %16

16:                                               ; preds = %15
  %17 = load ptr, ptr @stderr, align 8, !tbaa !15
  %18 = load i32, ptr %3, align 4, !tbaa !9
  %19 = call i32 (ptr, ptr, ...) @fprintf(ptr noundef %17, ptr noundef @.str.32, i32 noundef %18) #17
  %20 = load ptr, ptr @stderr, align 8, !tbaa !15
  %21 = call i32 (ptr, ptr, ...) @fprintf(ptr noundef %20, ptr noundef @.str.17) #17
  br label %22

22:                                               ; preds = %16
  store ptr @_ZL23g_cpu_affinity_mask_all, ptr %2, align 8
  br label %23

23:                                               ; preds = %22, %14, %10, %6
  %24 = load ptr, ptr %2, align 8
  ret ptr %24
}

; Function Attrs: mustprogress uwtable
define hidden noundef i32 @_ZN4ncnn17set_cpu_powersaveEi(i32 noundef %0) #1 {
  %2 = alloca i32, align 4
  %3 = alloca i32, align 4
  %4 = alloca ptr, align 8
  %5 = alloca i32, align 4
  %6 = alloca i32, align 4
  store i32 %0, ptr %3, align 4, !tbaa !9
  call void @_ZL30try_initialize_global_cpu_infov()
  %7 = load i32, ptr %3, align 4, !tbaa !9
  %8 = icmp slt i32 %7, 0
  br i1 %8, label %12, label %9

9:                                                ; preds = %1
  %10 = load i32, ptr %3, align 4, !tbaa !9
  %11 = icmp sgt i32 %10, 2
  br i1 %11, label %12, label %20

12:                                               ; preds = %9, %1
  br label %13

13:                                               ; preds = %12
  %14 = load ptr, ptr @stderr, align 8, !tbaa !15
  %15 = load i32, ptr %3, align 4, !tbaa !9
  %16 = call i32 (ptr, ptr, ...) @fprintf(ptr noundef %14, ptr noundef @.str.32, i32 noundef %15) #17
  %17 = load ptr, ptr @stderr, align 8, !tbaa !15
  %18 = call i32 (ptr, ptr, ...) @fprintf(ptr noundef %17, ptr noundef @.str.17) #17
  br label %19

19:                                               ; preds = %13
  store i32 -1, ptr %2, align 4
  br label %32

20:                                               ; preds = %9
  call void @llvm.lifetime.start.p0(i64 8, ptr %4) #17
  %21 = load i32, ptr %3, align 4, !tbaa !9
  %22 = call noundef nonnull align 8 dereferenceable(128) ptr @_ZN4ncnn28get_cpu_thread_affinity_maskEi(i32 noundef %21)
  store ptr %22, ptr %4, align 8, !tbaa !4
  call void @llvm.lifetime.start.p0(i64 4, ptr %5) #17
  %23 = load ptr, ptr %4, align 8, !tbaa !4
  %24 = call noundef i32 @_ZN4ncnn23set_cpu_thread_affinityERKNS_6CpuSetE(ptr noundef nonnull align 8 dereferenceable(128) %23)
  store i32 %24, ptr %5, align 4, !tbaa !9
  %25 = load i32, ptr %5, align 4, !tbaa !9
  %26 = icmp ne i32 %25, 0
  br i1 %26, label %27, label %29

27:                                               ; preds = %20
  %28 = load i32, ptr %5, align 4, !tbaa !9
  store i32 %28, ptr %2, align 4
  store i32 1, ptr %6, align 4
  br label %31

29:                                               ; preds = %20
  %30 = load i32, ptr %3, align 4, !tbaa !9
  store i32 %30, ptr @_ZL11g_powersave, align 4, !tbaa !9
  store i32 0, ptr %2, align 4
  store i32 1, ptr %6, align 4
  br label %31

31:                                               ; preds = %29, %27
  call void @llvm.lifetime.end.p0(i64 4, ptr %5) #17
  call void @llvm.lifetime.end.p0(i64 8, ptr %4) #17
  br label %32

32:                                               ; preds = %31, %19
  %33 = load i32, ptr %2, align 4
  ret i32 %33
}