; Function Attrs: mustprogress uwtable
define hidden noundef range(i32 -1, 1) i32 @_ZN4ncnn17set_cpu_powersaveEi(i32 noundef %0) local_unnamed_addr #5 {
  tail call fastcc void @_ZL30try_initialize_global_cpu_infov()
  %or.cond = icmp ugt i32 %0, 2
  br i1 %or.cond, label %2, label %switch.lookup

2:                                                ; preds = %1
  %3 = load ptr, ptr @stderr, align 8, !tbaa !15
  %4 = tail call i32 (ptr, ptr, ...) @fprintf(ptr noundef %3, ptr noundef nonnull @.str.32, i32 noundef %0) #28
  %5 = load ptr, ptr @stderr, align 8, !tbaa !15
  %fputc = tail call i32 @fputc(i32 10, ptr %5)
  br label %9

switch.lookup:                                    ; preds = %1
  tail call fastcc void @_ZL30try_initialize_global_cpu_infov()
  %6 = zext nneg i32 %0 to i64
  %switch.gep = getelementptr inbounds nuw [3 x ptr], ptr @switch.table._ZN4ncnn17set_cpu_powersaveEi, i64 0, i64 %6
  %switch.load = load ptr, ptr %switch.gep, align 8
  %7 = tail call noundef i32 @_ZN4ncnn23set_cpu_thread_affinityERKNS_6CpuSetE(ptr noundef nonnull align 8 dereferenceable(128) %switch.load)
  %.not = icmp eq i32 %7, 0
  br i1 %.not, label %8, label %9

8:                                                ; preds = %switch.lookup
  store i32 %0, ptr @_ZL11g_powersave, align 4, !tbaa !10
  br label %9

9:                                                ; preds = %8, %switch.lookup, %2
  %.0 = phi i32 [ -1, %2 ], [ 0, %8 ], [ -1, %switch.lookup ]
  ret i32 %.0
}